target datalayout = "e-m:e-p270:32:32-p271:32:32-p272:64:64-i64:64-i128:128-f80:128-n8:16:32:64-S128"
target triple = "x86_64-pc-linux-gnu"

%struct.cli_hashset = type { ptr, ptr, ptr, i32, i32, i32, i32 }

; Function Attrs: nounwind uwtable
define internal i32 @hash32shift(i32 noundef %0) #0 {
  %2 = alloca i32, align 4
  store i32 %0, ptr %2, align 4
  %3 = load i32, ptr %2, align 4
  %4 = xor i32 %3, -1
  %5 = load i32, ptr %2, align 4
  %6 = shl i32 %5, 15
  %7 = add i32 %4, %6
  store i32 %7, ptr %2, align 4
  %8 = load i32, ptr %2, align 4
  %9 = load i32, ptr %2, align 4
  %10 = lshr i32 %9, 12
  %11 = xor i32 %8, %10
  store i32 %11, ptr %2, align 4
  %12 = load i32, ptr %2, align 4
  %13 = load i32, ptr %2, align 4
  %14 = shl i32 %13, 2
  %15 = add i32 %12, %14
  store i32 %15, ptr %2, align 4
  %16 = load i32, ptr %2, align 4
  %17 = load i32, ptr %2, align 4
  %18 = lshr i32 %17, 4
  %19 = xor i32 %16, %18
  store i32 %19, ptr %2, align 4
  %20 = load i32, ptr %2, align 4
  %21 = load i32, ptr %2, align 4
  %22 = shl i32 %21, 3
  %23 = add i32 %20, %22
  %24 = load i32, ptr %2, align 4
  %25 = shl i32 %24, 11
  %26 = add i32 %23, %25
  store i32 %26, ptr %2, align 4
  %27 = load i32, ptr %2, align 4
  %28 = load i32, ptr %2, align 4
  %29 = lshr i32 %28, 16
  %30 = xor i32 %27, %29
  store i32 %30, ptr %2, align 4
  %31 = load i32, ptr %2, align 4
  ret i32 %31
}

; Function Attrs: nounwind uwtable
define internal i64 @cli_hashset_search(ptr noundef %0, i32 noundef %1) #0 {
  %3 = alloca ptr, align 8
  %4 = alloca i32, align 4
  %5 = alloca i64, align 8
  %6 = alloca i64, align 8
  store ptr %0, ptr %3, align 8
  store i32 %1, ptr %4, align 4
  %7 = load i32, ptr %4, align 4
  %8 = call i32 @hash32shift(i32 noundef %7)
  %9 = load ptr, ptr %3, align 8
  %10 = getelementptr inbounds %struct.cli_hashset, ptr %9, i32 0, i32 4
  %11 = load i32, ptr %10, align 4
  %12 = and i32 %8, %11
  %13 = zext i32 %12 to i64
  store i64 %13, ptr %5, align 8
  store i64 1, ptr %6, align 8
  br label %14

14:                                               ; preds = %39, %2
  %15 = load ptr, ptr %3, align 8
  %16 = getelementptr inbounds %struct.cli_hashset, ptr %15, i32 0, i32 1
  %17 = load ptr, ptr %16, align 8
  %18 = load i64, ptr %5, align 8
  %19 = lshr i64 %18, 5
  %20 = getelementptr inbounds i32, ptr %17, i64 %19
  %21 = load i32, ptr %20, align 4
  %22 = zext i32 %21 to i64
  %23 = load i64, ptr %5, align 8
  %24 = and i64 %23, 31
  %25 = shl i64 1, %24
  %26 = and i64 %22, %25
  %27 = icmp ne i64 %26, 0
  br i1 %27, label %28, label %37

28:                                               ; preds = %14
  %29 = load ptr, ptr %3, align 8
  %30 = getelementptr inbounds %struct.cli_hashset, ptr %29, i32 0, i32 0
  %31 = load ptr, ptr %30, align 8
  %32 = load i64, ptr %5, align 8
  %33 = getelementptr inbounds i32, ptr %31, i64 %32
  %34 = load i32, ptr %33, align 4
  %35 = load i32, ptr %4, align 4
  %36 = icmp ne i32 %34, %35
  br label %37

37:                                               ; preds = %28, %14
  %38 = phi i1 [ false, %14 ], [ %36, %28 ]
  br i1 %38, label %39, label %49

39:                                               ; preds = %37
  %40 = load i64, ptr %5, align 8
  %41 = load i64, ptr %6, align 8
  %42 = add i64 %41, 1
  store i64 %42, ptr %6, align 8
  %43 = add i64 %40, %41
  %44 = load ptr, ptr %3, align 8
  %45 = getelementptr inbounds %struct.cli_hashset, ptr %44, i32 0, i32 4
  %46 = load i32, ptr %45, align 4
  %47 = zext i32 %46 to i64
  %48 = and i64 %43, %47
  store i64 %48, ptr %5, align 8
  br label %14

49:                                               ; preds = %37
  %50 = load i64, ptr %5, align 8
  ret i64 %50
}

; Function Attrs: nounwind uwtable
define zeroext i1 @cli_hashset_contains(ptr noundef %0, i32 noundef %1) #0 {
  %3 = alloca ptr, align 8
  %4 = alloca i32, align 4
  %5 = alloca i64, align 8
  store ptr %0, ptr %3, align 8
  store i32 %1, ptr %4, align 4
  %6 = load ptr, ptr %3, align 8
  %7 = load i32, ptr %4, align 4
  %8 = call i64 @cli_hashset_search(ptr noundef %6, i32 noundef %7)
  store i64 %8, ptr %5, align 8
  %9 = load ptr, ptr %3, align 8
  %10 = getelementptr inbounds %struct.cli_hashset, ptr %9, i32 0, i32 1
  %11 = load ptr, ptr %10, align 8
  %12 = load i64, ptr %5, align 8
  %13 = lshr i64 %12, 5
  %14 = getelementptr inbounds i32, ptr %11, i64 %13
  %15 = load i32, ptr %14, align 4
  %16 = zext i32 %15 to i64
  %17 = load i64, ptr %5, align 8
  %18 = and i64 %17, 31
  %19 = shl i64 1, %18
  %20 = and i64 %16, %19
  %21 = icmp ne i64 %20, 0
  ret i1 %21
}

; Function Attrs: nounwind uwtable
define zeroext i1 @cli_hashset_contains_maybe_noalloc(ptr noundef %0, i32 noundef %1) #0 {
  %3 = alloca i1, align 1
  %4 = alloca ptr, align 8
  %5 = alloca i32, align 4
  store ptr %0, ptr %4, align 8
  store i32 %1, ptr %5, align 4
  %6 = load ptr, ptr %4, align 8
  %7 = getelementptr inbounds %struct.cli_hashset, ptr %6, i32 0, i32 0
  %8 = load ptr, ptr %7, align 8
  %9 = icmp ne ptr %8, null
  br i1 %9, label %11, label %10

10:                                               ; preds = %2
  store i1 false, ptr %3, align 1
  br label %15

11:                                               ; preds = %2
  %12 = load ptr, ptr %4, align 8
  %13 = load i32, ptr %5, align 4
  %14 = call zeroext i1 @cli_hashset_contains(ptr noundef %12, i32 noundef %13)
  store i1 %14, ptr %3, align 1
  br label %15

15:                                               ; preds = %11, %10
  %16 = load i1, ptr %3, align 1
  ret i1 %16
}