; Function Attrs: nofree norecurse nosync nounwind memory(read, inaccessiblemem: none) uwtable
define zeroext i1 @cli_hashset_contains_maybe_noalloc(ptr nocapture noundef readonly %0, i32 noundef %1) local_unnamed_addr #4 {
  %3 = load ptr, ptr %0, align 8
  %.not = icmp eq ptr %3, null
  br i1 %.not, label %cli_hashset_contains.exit, label %4

4:                                                ; preds = %2
  %5 = xor i32 %1, -1
  %6 = shl i32 %1, 15
  %7 = add i32 %6, %5
  %8 = lshr i32 %7, 12
  %9 = xor i32 %8, %7
  %10 = mul i32 %9, 5
  %11 = lshr i32 %10, 4
  %12 = xor i32 %11, %10
  %13 = mul i32 %12, 2057
  %14 = lshr i32 %13, 16
  %15 = xor i32 %14, %13
  %16 = getelementptr inbounds i8, ptr %0, i64 28
  %17 = load i32, ptr %16, align 4
  %18 = and i32 %17, %15
  %19 = zext i32 %18 to i64
  %20 = getelementptr inbounds i8, ptr %0, i64 8
  %21 = load ptr, ptr %20, align 8
  %22 = lshr i64 %19, 5
  %23 = getelementptr inbounds i32, ptr %21, i64 %22
  %24 = load i32, ptr %23, align 4
  %25 = zext i32 %24 to i64
  %26 = and i64 %19, 31
  %27 = shl nuw nsw i64 1, %26
  %28 = and i64 %27, %25
  %.not13.i.i = icmp eq i64 %28, 0
  br i1 %.not13.i.i, label %cli_hashset_contains.exit, label %.lr.ph.i.i

.lr.ph.i.i:                                       ; preds = %4
  %29 = zext i32 %17 to i64
  br label %30

30:                                               ; preds = %34, %.lr.ph.i.i
  %.015.i.i = phi i64 [ 1, %.lr.ph.i.i ], [ %35, %34 ]
  %.01114.i.i = phi i64 [ %19, %.lr.ph.i.i ], [ %37, %34 ]
  %31 = getelementptr inbounds i32, ptr %3, i64 %.01114.i.i
  %32 = load i32, ptr %31, align 4
  %.not12.i.i = icmp eq i32 %32, %1
  br i1 %.not12.i.i, label %.cli_hashset_search.exit.loopexit_crit_edge.i, label %34

.cli_hashset_search.exit.loopexit_crit_edge.i:    ; preds = %30
  %.pre13.i = lshr i64 %.01114.i.i, 5
  %.pre.i = and i64 %.01114.i.i, 31
  %.pre14.i = shl nuw nsw i64 1, %.pre.i
  %.phi.trans.insert.i.phi.trans.insert = getelementptr inbounds i32, ptr %21, i64 %.pre13.i
  %.pre4.i.pre = load i32, ptr %.phi.trans.insert.i.phi.trans.insert, align 4
  %.pre = zext i32 %.pre4.i.pre to i64
  %.pre8 = and i64 %.pre14.i, %.pre
  %33 = icmp ne i64 %.pre8, 0
  br label %cli_hashset_contains.exit

34:                                               ; preds = %30
  %35 = add i64 %.015.i.i, 1
  %36 = add i64 %.01114.i.i, %.015.i.i
  %37 = and i64 %36, %29
  %38 = lshr i64 %37, 5
  %39 = getelementptr inbounds i32, ptr %21, i64 %38
  %40 = load i32, ptr %39, align 4
  %41 = zext i32 %40 to i64
  %42 = and i64 %37, 31
  %43 = shl nuw nsw i64 1, %42
  %44 = and i64 %43, %41
  %.not.i.i = icmp eq i64 %44, 0
  br i1 %.not.i.i, label %cli_hashset_contains.exit, label %30

cli_hashset_contains.exit:                        ; preds = %34, %.cli_hashset_search.exit.loopexit_crit_edge.i, %4, %2
  %.0 = phi i1 [ false, %2 ], [ false, %4 ], [ %33, %.cli_hashset_search.exit.loopexit_crit_edge.i ], [ false, %34 ]
  ret i1 %.0
}